(dp1
S'failed'
p2
(lp3
S'3'
asS'source_names'
p4
(lp5
S'test_file_name.py:TestClass.test_function_name'
p6
aS'test_authentication.py:TestForgotPassword.test_invalid_inputs'
p7
aS'test_authentication.py:TestForgotPassword.test_required_fields'
p8
asS'ids'
p9
(dp10
I1
(S'/Users/juanrodriguez/Workspace/ParityPayTesting/test_file_name.py'
S'test_file_name'
S'TestClass.test_function_name'
tp11
sI2
(S'/Users/juanrodriguez/Workspace/ParityPayTesting/test_authentication.py'
S'test_authentication'
S'TestForgotPassword.test_invalid_inputs'
tp12
sI3
(S'/Users/juanrodriguez/Workspace/ParityPayTesting/test_authentication.py'
S'test_authentication'
S'TestForgotPassword.test_required_fields'
tp13
ss.